; Function Attrs: mustprogress nounwind uwtable
define hidden void @_ZN16NullCheckVisitor7do_IfOpEP4IfOp(ptr nocapture noundef nonnull readonly align 8 dereferenceable(16) %0, ptr nocapture noundef readonly %1) unnamed_addr #1 align 2 {
  %3 = getelementptr inbounds i8, ptr %0, i64 8
  %4 = load ptr, ptr %3, align 8
  %5 = getelementptr inbounds i8, ptr %1, i64 24
  %6 = load ptr, ptr %5, align 8
  %7 = load ptr, ptr %6, align 8
  %8 = getelementptr inbounds i8, ptr %7, i64 72
  %9 = load ptr, ptr %8, align 8
  %10 = tail call noundef ptr %9(ptr noundef nonnull align 8 dereferenceable(16) %6) #14
  %.not.i = icmp eq ptr %10, null
  br i1 %.not.i, label %_ZN19NullCheckEliminator11handle_IfOpEP4IfOp.exit, label %11

11:                                               ; preds = %2
  %12 = getelementptr inbounds i8, ptr %1, i64 120
  %13 = load ptr, ptr %12, align 8
  %14 = getelementptr inbounds i8, ptr %4, i64 32
  %15 = load ptr, ptr %14, align 8
  %16 = getelementptr inbounds i8, ptr %13, i64 8
  %17 = load i32, ptr %16, align 8
  %18 = sext i32 %17 to i64
  %19 = load ptr, ptr %15, align 8
  %20 = lshr i64 %18, 6
  %21 = getelementptr inbounds i64, ptr %19, i64 %20
  %22 = load i64, ptr %21, align 8
  %23 = and i64 %18, 63
  %24 = shl nuw i64 1, %23
  %25 = and i64 %24, %22
  %.not5.i = icmp eq i64 %25, 0
  br i1 %.not5.i, label %_ZN19NullCheckEliminator11handle_IfOpEP4IfOp.exit, label %26

26:                                               ; preds = %11
  %27 = getelementptr inbounds i8, ptr %1, i64 128
  %28 = load ptr, ptr %27, align 8
  %29 = getelementptr inbounds i8, ptr %28, i64 8
  %30 = load i32, ptr %29, align 8
  %31 = sext i32 %30 to i64
  %32 = lshr i64 %31, 6
  %33 = getelementptr inbounds i64, ptr %19, i64 %32
  %34 = load i64, ptr %33, align 8
  %35 = and i64 %31, 63
  %36 = shl nuw i64 1, %35
  %37 = and i64 %36, %34
  %.not6.i = icmp eq i64 %37, 0
  br i1 %.not6.i, label %_ZN19NullCheckEliminator11handle_IfOpEP4IfOp.exit, label %38

38:                                               ; preds = %26
  %39 = getelementptr inbounds i8, ptr %1, i64 8
  %40 = load i32, ptr %39, align 8
  %41 = sext i32 %40 to i64
  %42 = and i64 %41, 63
  %43 = shl nuw i64 1, %42
  %44 = lshr i64 %41, 6
  %45 = getelementptr inbounds i64, ptr %19, i64 %44
  %46 = load i64, ptr %45, align 8
  %47 = or i64 %43, %46
  store i64 %47, ptr %45, align 8
  br label %_ZN19NullCheckEliminator11handle_IfOpEP4IfOp.exit

_ZN19NullCheckEliminator11handle_IfOpEP4IfOp.exit: ; preds = %2, %11, %26, %38
  ret void
}